target datalayout = "e-m:e-p270:32:32-p271:32:32-p272:64:64-i64:64-i128:128-f80:128-n8:16:32:64-S128"
target triple = "x86_64-pc-linux-gnu"

%struct.dsa_st = type { i32, i32, %struct.ffc_params_st, ptr, ptr, i32, ptr, %struct.CRYPTO_REF_COUNT, %struct.crypto_ex_data_st, ptr, ptr, ptr, ptr, i64 }
%struct.ffc_params_st = type { ptr, ptr, ptr, ptr, ptr, i64, i32, i32, i32, i32, i32, ptr, ptr, i32 }
%struct.CRYPTO_REF_COUNT = type { i32 }
%struct.crypto_ex_data_st = type { ptr, ptr }

; Function Attrs: nounwind uwtable
define i32 @DSA_set0_pqg(ptr noundef %0, ptr noundef %1, ptr noundef %2, ptr noundef %3) #0 {
  %5 = alloca i32, align 4
  %6 = alloca ptr, align 8
  %7 = alloca ptr, align 8
  %8 = alloca ptr, align 8
  %9 = alloca ptr, align 8
  store ptr %0, ptr %6, align 8, !tbaa !3
  store ptr %1, ptr %7, align 8, !tbaa !13
  store ptr %2, ptr %8, align 8, !tbaa !13
  store ptr %3, ptr %9, align 8, !tbaa !13
  %10 = load ptr, ptr %6, align 8, !tbaa !3
  %11 = getelementptr inbounds nuw %struct.dsa_st, ptr %10, i32 0, i32 2
  %12 = getelementptr inbounds nuw %struct.ffc_params_st, ptr %11, i32 0, i32 0
  %13 = load ptr, ptr %12, align 8, !tbaa !44
  %14 = icmp eq ptr %13, null
  br i1 %14, label %15, label %18

15:                                               ; preds = %4
  %16 = load ptr, ptr %7, align 8, !tbaa !13
  %17 = icmp eq ptr %16, null
  br i1 %17, label %36, label %18

18:                                               ; preds = %15, %4
  %19 = load ptr, ptr %6, align 8, !tbaa !3
  %20 = getelementptr inbounds nuw %struct.dsa_st, ptr %19, i32 0, i32 2
  %21 = getelementptr inbounds nuw %struct.ffc_params_st, ptr %20, i32 0, i32 1
  %22 = load ptr, ptr %21, align 8, !tbaa !45
  %23 = icmp eq ptr %22, null
  br i1 %23, label %24, label %27

24:                                               ; preds = %18
  %25 = load ptr, ptr %8, align 8, !tbaa !13
  %26 = icmp eq ptr %25, null
  br i1 %26, label %36, label %27

27:                                               ; preds = %24, %18
  %28 = load ptr, ptr %6, align 8, !tbaa !3
  %29 = getelementptr inbounds nuw %struct.dsa_st, ptr %28, i32 0, i32 2
  %30 = getelementptr inbounds nuw %struct.ffc_params_st, ptr %29, i32 0, i32 2
  %31 = load ptr, ptr %30, align 8, !tbaa !46
  %32 = icmp eq ptr %31, null
  br i1 %32, label %33, label %37

33:                                               ; preds = %27
  %34 = load ptr, ptr %9, align 8, !tbaa !13
  %35 = icmp eq ptr %34, null
  br i1 %35, label %36, label %37

36:                                               ; preds = %33, %24, %15
  store i32 0, ptr %5, align 4
  br label %47

37:                                               ; preds = %33, %27
  %38 = load ptr, ptr %6, align 8, !tbaa !3
  %39 = getelementptr inbounds nuw %struct.dsa_st, ptr %38, i32 0, i32 2
  %40 = load ptr, ptr %7, align 8, !tbaa !13
  %41 = load ptr, ptr %8, align 8, !tbaa !13
  %42 = load ptr, ptr %9, align 8, !tbaa !13
  call void @ossl_ffc_params_set0_pqg(ptr noundef %39, ptr noundef %40, ptr noundef %41, ptr noundef %42)
  %43 = load ptr, ptr %6, align 8, !tbaa !3
  %44 = getelementptr inbounds nuw %struct.dsa_st, ptr %43, i32 0, i32 13
  %45 = load i64, ptr %44, align 8, !tbaa !47
  %46 = add i64 %45, 1
  store i64 %46, ptr %44, align 8, !tbaa !47
  store i32 1, ptr %5, align 4
  br label %47

47:                                               ; preds = %37, %36
  %48 = load i32, ptr %5, align 4
  ret i32 %48
}