; Function Attrs: nounwind uwtable
define range(i32 0, 2) i32 @DSA_set0_pqg(ptr noundef %0, ptr noundef %1, ptr noundef %2, ptr noundef %3) local_unnamed_addr #0 {
  %5 = getelementptr inbounds nuw i8, ptr %0, i64 8
  %6 = load ptr, ptr %5, align 8, !tbaa !31
  %7 = icmp eq ptr %6, null
  %8 = icmp eq ptr %1, null
  %or.cond = and i1 %8, %7
  br i1 %or.cond, label %23, label %9

9:                                                ; preds = %4
  %10 = getelementptr inbounds nuw i8, ptr %0, i64 16
  %11 = load ptr, ptr %10, align 8, !tbaa !32
  %12 = icmp eq ptr %11, null
  %13 = icmp eq ptr %2, null
  %or.cond3 = and i1 %13, %12
  br i1 %or.cond3, label %23, label %14

14:                                               ; preds = %9
  %15 = getelementptr inbounds nuw i8, ptr %0, i64 24
  %16 = load ptr, ptr %15, align 8, !tbaa !33
  %17 = icmp eq ptr %16, null
  %18 = icmp eq ptr %3, null
  %or.cond5 = and i1 %18, %17
  br i1 %or.cond5, label %23, label %19

19:                                               ; preds = %14
  tail call void @ossl_ffc_params_set0_pqg(ptr noundef nonnull %5, ptr noundef %1, ptr noundef %2, ptr noundef %3) #7
  %20 = getelementptr inbounds nuw i8, ptr %0, i64 192
  %21 = load i64, ptr %20, align 8, !tbaa !34
  %22 = add i64 %21, 1
  store i64 %22, ptr %20, align 8, !tbaa !34
  br label %23

23:                                               ; preds = %4, %9, %14, %19
  %.0 = phi i32 [ 1, %19 ], [ 0, %14 ], [ 0, %9 ], [ 0, %4 ]
  ret i32 %.0
}